target datalayout = "e-m:e-p270:32:32-p271:32:32-p272:64:64-i64:64-i128:128-f80:128-n8:16:32:64-S128"
target triple = "x86_64-pc-linux-gnu"

%struct.redisServer = type { i32, i64, ptr, ptr, ptr, i32, i32, i32, i32, i32, ptr, ptr, ptr, ptr, ptr, i32, i32, i32, i32, i64, i32, i32, i32, i32, ptr, i32, i32, [41 x i8], i32, i64, i32, i32, i32, ptr, ptr, i32, i32, i64, ptr, ptr, ptr, ptr, [2 x i32], i32, i32, i32, i32, i32, i32, [16 x ptr], i32, ptr, ptr, i32, [8 x %struct.connListener], i32, %struct.connListener, ptr, ptr, ptr, ptr, ptr, ptr, ptr, ptr, ptr, ptr, i32, ptr, i32, ptr, [3 x %struct.pause_event], [256 x i8], ptr, i64, i32, i32, [128 x i32], i32, i32, i64, i32, i32, i32, i32, i32, i64, i64, i64, i64, i64, i64, i64, i64, i64, i64, double, i64, i64, i64, i64, i64, i64, i64, i64, i64, i64, i64, i64, i64, i64, i64, i64, i64, i64, i64, i64, i64, double, i64, i64, i64, i64, i64, ptr, i64, i64, i64, %struct.malloc_stats, i64, i64, i64, i64, i64, i64, i64, i64, i64, i64, i64, i64, double, [4 x i64], i64, i64, i64, i64, [128 x i64], [128 x i64], i64, i64, [7 x %struct.anon], i64, i64, i64, i64, i64, i64, [4 x %struct.durationStats], i32, i32, i32, i32, i32, i32, i32, i32, i32, i32, i32, i32, i64, i32, i32, i32, i32, i64, i64, i32, i32, i32, i32, i32, ptr, [3 x %struct.clientBufferLimitsConfig], i32, i32, i32, ptr, i32, i32, i32, i32, i32, i32, ptr, ptr, i32, i32, i64, i64, i64, i64, i64, i32, i32, ptr, i32, i32, i64, i64, i64, i64, i64, i32, i32, i64, i32, i32, i32, i32, i32, i32, i32, i32, ptr, i32, i64, i64, i64, i64, i32, ptr, i32, ptr, i32, i32, i32, i64, i64, i64, i64, i32, i32, i32, i32, i32, i32, ptr, i32, i32, ptr, i32, i32, i32, [2 x i32], i32, %struct.redisOpArray, i32, ptr, i32, ptr, i32, i32, i32, i32, i32, i32, i32, [41 x i8], [41 x i8], i64, i64, i64, i64, i32, i32, ptr, i64, i64, %struct.replDataBuf, i64, i64, i32, i32, i32, i32, i32, i32, i32, i32, i32, i64, ptr, i64, ptr, ptr, ptr, i32, i32, ptr, ptr, i32, i32, i32, i64, i64, i64, i64, ptr, ptr, i32, ptr, i64, i32, i32, i32, i64, i32, i32, i32, i32, ptr, i32, i32, [41 x i8], i64, i32, ptr, i32, i32, i64, i64, i32, i32, i32, i32, i32, i64, [3 x i32], i32, i32, i32, [10 x i32], ptr, ptr, i32, i64, ptr, ptr, i32, i32, i32, i32, i64, i64, i64, i64, i64, i64, i64, i64, i64, i64, i32, i32, i64, i64, i32, i64, i64, i64, i64, i64, ptr, ptr, i32, ptr, i32, i32, i32, i32, i64, i64, ptr, ptr, i32, i32, i32, i32, i32, ptr, ptr, ptr, i32, i32, i32, i32, i32, i32, i32, i64, i32, i32, i64, i32, i32, i32, i32, i32, i32, i32, i64, ptr, ptr, i64, ptr, i32, %struct.aclInfo, i32, i64, i32, i32, i32, %struct.redisTLSContextConfig, ptr, ptr, ptr, ptr, ptr, i64, i32, ptr, i32, i32, i32, i64, i32, ptr }
%struct.connListener = type { [16 x i32], i32, ptr, i32, i32, ptr, ptr }
%struct.pause_event = type { i32, i64 }
%struct.malloc_stats = type { i64, i64, i64, i64, i64, i64, i64, i64, i64, i64, i64 }
%struct.anon = type { i64, i64, [16 x i64], i32 }
%struct.durationStats = type { i64, i64, i64 }
%struct.clientBufferLimitsConfig = type { i64, i64, i64 }
%struct.redisOpArray = type { ptr, i32, i32 }
%struct.replDataBuf = type { ptr, i64, i64, i64, i64 }
%struct.aclInfo = type { i64, i64, i64, i64 }
%struct.redisTLSContextConfig = type { ptr, ptr, ptr, ptr, ptr, ptr, ptr, ptr, ptr, ptr, ptr, ptr, i32, i32, i32, i32 }
%struct.sentinelState = type { [41 x i8], i64, ptr, i32, i32, i64, i64, ptr, ptr, i32, i64, i32, ptr, ptr, i32, i32 }
%struct.sentinelRedisInstance = type { i32, ptr, ptr, i64, ptr, ptr, i64, i64, i64, i64, i64, i64, i64, i64, i64, ptr, i32, i64, i64, ptr, ptr, i32, i32, ptr, ptr, i64, i32, i32, i64, ptr, ptr, i32, i32, i64, ptr, i64, i64, i32, i64, i64, i64, i64, ptr, ptr, ptr, ptr }

@server = external global %struct.redisServer, align 8
@sentinel = dso_local global %struct.sentinelState zeroinitializer, align 8
@.str.144 = private unnamed_addr constant [76 x i8] c"WARNING: Sentinel was not able to save the new configuration on disk!!!: %s\00", align 1
@.str.145 = private unnamed_addr constant [41 x i8] c"Sentinel new configuration saved on disk\00", align 1
@.str.196 = private unnamed_addr constant [11 x i8] c"+new-epoch\00", align 1
@.str.197 = private unnamed_addr constant [5 x i8] c"%llu\00", align 1
@.str.413 = private unnamed_addr constant [17 x i8] c"+vote-for-leader\00", align 1
@.str.414 = private unnamed_addr constant [8 x i8] c"%s %llu\00", align 1

; Function Attrs: nounwind uwtable
define dso_local i32 @sentinelFlushConfig() #0 {
  %1 = alloca i32, align 4
  %2 = alloca i32, align 4
  %3 = alloca i32, align 4
  %4 = alloca i32, align 4
  call void @llvm.lifetime.start.p0(i64 4, ptr %2) #16
  %5 = load i32, ptr getelementptr inbounds nuw (%struct.redisServer, ptr @server, i32 0, i32 8), align 4, !tbaa !86
  store i32 %5, ptr %2, align 4, !tbaa !82
  call void @llvm.lifetime.start.p0(i64 4, ptr %3) #16
  store i32 10, ptr getelementptr inbounds nuw (%struct.redisServer, ptr @server, i32 0, i32 8), align 4, !tbaa !86
  %6 = load ptr, ptr getelementptr inbounds nuw (%struct.redisServer, ptr @server, i32 0, i32 2), align 8, !tbaa !80
  %7 = call i32 @rewriteConfig(ptr noundef %6, i32 noundef 0)
  store i32 %7, ptr %3, align 4, !tbaa !82
  %8 = load i32, ptr %2, align 4, !tbaa !82
  store i32 %8, ptr getelementptr inbounds nuw (%struct.redisServer, ptr @server, i32 0, i32 8), align 4, !tbaa !86
  %9 = load i32, ptr %3, align 4, !tbaa !82
  %10 = icmp eq i32 %9, -1
  br i1 %10, label %11, label %22

11:                                               ; preds = %0
  br label %12

12:                                               ; preds = %11
  %13 = load i32, ptr getelementptr inbounds nuw (%struct.redisServer, ptr @server, i32 0, i32 159), align 8, !tbaa !81
  %14 = icmp slt i32 3, %13
  br i1 %14, label %15, label %16

15:                                               ; preds = %12
  br label %21

16:                                               ; preds = %12
  %17 = call ptr @__errno_location() #17
  %18 = load i32, ptr %17, align 4, !tbaa !82
  %19 = call ptr @strerror(i32 noundef %18) #16
  call void (i32, ptr, ...) @_serverLog(i32 noundef 3, ptr noundef @.str.144, ptr noundef %19)
  br label %20

20:                                               ; preds = %16
  br label %21

21:                                               ; preds = %20, %15
  store i32 -1, ptr %1, align 4
  store i32 1, ptr %4, align 4
  br label %30

22:                                               ; preds = %0
  br label %23

23:                                               ; preds = %22
  %24 = load i32, ptr getelementptr inbounds nuw (%struct.redisServer, ptr @server, i32 0, i32 159), align 8, !tbaa !81
  %25 = icmp slt i32 2, %24
  br i1 %25, label %26, label %27

26:                                               ; preds = %23
  br label %29

27:                                               ; preds = %23
  call void (i32, ptr, ...) @_serverLog(i32 noundef 2, ptr noundef @.str.145)
  br label %28

28:                                               ; preds = %27
  br label %29

29:                                               ; preds = %28, %26
  store i32 0, ptr %1, align 4
  store i32 1, ptr %4, align 4
  br label %30

30:                                               ; preds = %29, %21
  call void @llvm.lifetime.end.p0(i64 4, ptr %3) #16
  call void @llvm.lifetime.end.p0(i64 4, ptr %2) #16
  %31 = load i32, ptr %1, align 4
  ret i32 %31
}

; Function Attrs: nounwind uwtable
define dso_local ptr @sentinelVoteLeader(ptr noundef %0, i64 noundef %1, ptr noundef %2, ptr noundef %3) #0 {
  %5 = alloca ptr, align 8
  %6 = alloca i64, align 8
  %7 = alloca ptr, align 8
  %8 = alloca ptr, align 8
  store ptr %0, ptr %5, align 8, !tbaa !11
  store i64 %1, ptr %6, align 8, !tbaa !205
  store ptr %2, ptr %7, align 8, !tbaa !93
  store ptr %3, ptr %8, align 8, !tbaa !309
  %9 = load i64, ptr %6, align 8, !tbaa !205
  %10 = load i64, ptr getelementptr inbounds nuw (%struct.sentinelState, ptr @sentinel, i32 0, i32 1), align 8, !tbaa !63
  %11 = icmp ugt i64 %9, %10
  br i1 %11, label %12, label %17

12:                                               ; preds = %4
  %13 = load i64, ptr %6, align 8, !tbaa !205
  store i64 %13, ptr getelementptr inbounds nuw (%struct.sentinelState, ptr @sentinel, i32 0, i32 1), align 8, !tbaa !63
  %14 = call i32 @sentinelFlushConfig()
  %15 = load ptr, ptr %5, align 8, !tbaa !11
  %16 = load i64, ptr getelementptr inbounds nuw (%struct.sentinelState, ptr @sentinel, i32 0, i32 1), align 8, !tbaa !63
  call void (i32, ptr, ptr, ptr, ...) @sentinelEvent(i32 noundef 3, ptr noundef @.str.196, ptr noundef %15, ptr noundef @.str.197, i64 noundef %16)
  br label %17

17:                                               ; preds = %12, %4
  %18 = load ptr, ptr %5, align 8, !tbaa !11
  %19 = getelementptr inbounds nuw %struct.sentinelRedisInstance, ptr %18, i32 0, i32 35
  %20 = load i64, ptr %19, align 8, !tbaa !191
  %21 = load i64, ptr %6, align 8, !tbaa !205
  %22 = icmp ult i64 %20, %21
  br i1 %22, label %23, label %60

23:                                               ; preds = %17
  %24 = load i64, ptr getelementptr inbounds nuw (%struct.sentinelState, ptr @sentinel, i32 0, i32 1), align 8, !tbaa !63
  %25 = load i64, ptr %6, align 8, !tbaa !205
  %26 = icmp ule i64 %24, %25
  br i1 %26, label %27, label %60

27:                                               ; preds = %23
  %28 = load ptr, ptr %5, align 8, !tbaa !11
  %29 = getelementptr inbounds nuw %struct.sentinelRedisInstance, ptr %28, i32 0, i32 34
  %30 = load ptr, ptr %29, align 8, !tbaa !28
  call void @sdsfree(ptr noundef %30)
  %31 = load ptr, ptr %7, align 8, !tbaa !93
  %32 = call ptr @sdsnew(ptr noundef %31)
  %33 = load ptr, ptr %5, align 8, !tbaa !11
  %34 = getelementptr inbounds nuw %struct.sentinelRedisInstance, ptr %33, i32 0, i32 34
  store ptr %32, ptr %34, align 8, !tbaa !28
  %35 = load i64, ptr getelementptr inbounds nuw (%struct.sentinelState, ptr @sentinel, i32 0, i32 1), align 8, !tbaa !63
  %36 = load ptr, ptr %5, align 8, !tbaa !11
  %37 = getelementptr inbounds nuw %struct.sentinelRedisInstance, ptr %36, i32 0, i32 35
  store i64 %35, ptr %37, align 8, !tbaa !191
  %38 = call i32 @sentinelFlushConfig()
  %39 = load ptr, ptr %5, align 8, !tbaa !11
  %40 = load ptr, ptr %5, align 8, !tbaa !11
  %41 = getelementptr inbounds nuw %struct.sentinelRedisInstance, ptr %40, i32 0, i32 34
  %42 = load ptr, ptr %41, align 8, !tbaa !28
  %43 = load ptr, ptr %5, align 8, !tbaa !11
  %44 = getelementptr inbounds nuw %struct.sentinelRedisInstance, ptr %43, i32 0, i32 35
  %45 = load i64, ptr %44, align 8, !tbaa !191
  call void (i32, ptr, ptr, ptr, ...) @sentinelEvent(i32 noundef 3, ptr noundef @.str.413, ptr noundef %39, ptr noundef @.str.414, ptr noundef %42, i64 noundef %45)
  %46 = load ptr, ptr %5, align 8, !tbaa !11
  %47 = getelementptr inbounds nuw %struct.sentinelRedisInstance, ptr %46, i32 0, i32 34
  %48 = load ptr, ptr %47, align 8, !tbaa !28
  %49 = call i32 @strcasecmp(ptr noundef %48, ptr noundef @sentinel) #19
  %50 = icmp ne i32 %49, 0
  br i1 %50, label %51, label %59

51:                                               ; preds = %27
  %52 = call i64 @mstime()
  %53 = call i32 @rand() #16
  %54 = srem i32 %53, 1000
  %55 = sext i32 %54 to i64
  %56 = add nsw i64 %52, %55
  %57 = load ptr, ptr %5, align 8, !tbaa !11
  %58 = getelementptr inbounds nuw %struct.sentinelRedisInstance, ptr %57, i32 0, i32 39
  store i64 %56, ptr %58, align 8, !tbaa !195
  br label %59

59:                                               ; preds = %51, %27
  br label %60

60:                                               ; preds = %59, %23, %17
  %61 = load ptr, ptr %5, align 8, !tbaa !11
  %62 = getelementptr inbounds nuw %struct.sentinelRedisInstance, ptr %61, i32 0, i32 35
  %63 = load i64, ptr %62, align 8, !tbaa !191
  %64 = load ptr, ptr %8, align 8, !tbaa !309
  store i64 %63, ptr %64, align 8, !tbaa !205
  %65 = load ptr, ptr %5, align 8, !tbaa !11
  %66 = getelementptr inbounds nuw %struct.sentinelRedisInstance, ptr %65, i32 0, i32 34
  %67 = load ptr, ptr %66, align 8, !tbaa !28
  %68 = icmp ne ptr %67, null
  br i1 %68, label %69, label %74

69:                                               ; preds = %60
  %70 = load ptr, ptr %5, align 8, !tbaa !11
  %71 = getelementptr inbounds nuw %struct.sentinelRedisInstance, ptr %70, i32 0, i32 34
  %72 = load ptr, ptr %71, align 8, !tbaa !28
  %73 = call ptr @sdsnew(ptr noundef %72)
  br label %75

74:                                               ; preds = %60
  br label %75

75:                                               ; preds = %74, %69
  %76 = phi ptr [ %73, %69 ], [ null, %74 ]
  ret ptr %76
}