; Function Attrs: nounwind uwtable
define dso_local ptr @sentinelVoteLeader(ptr noundef captures(address_is_null) %0, i64 noundef %1, ptr noundef %2, ptr noundef writeonly captures(none) initializes((0, 8)) %3) local_unnamed_addr #0 {
  %5 = load i64, ptr getelementptr inbounds nuw (i8, ptr @sentinel, i64 48), align 8, !tbaa !63
  %6 = icmp ugt i64 %1, %5
  br i1 %6, label %7, label %23

7:                                                ; preds = %4
  store i64 %1, ptr getelementptr inbounds nuw (i8, ptr @sentinel, i64 48), align 8, !tbaa !63
  %8 = load i32, ptr getelementptr inbounds nuw (i8, ptr @server, i64 52), align 4, !tbaa !82
  store i32 10, ptr getelementptr inbounds nuw (i8, ptr @server, i64 52), align 4, !tbaa !82
  %9 = load ptr, ptr getelementptr inbounds nuw (i8, ptr @server, i64 16), align 8, !tbaa !76
  %10 = tail call i32 @rewriteConfig(ptr noundef %9, i32 noundef 0) #30
  store i32 %8, ptr getelementptr inbounds nuw (i8, ptr @server, i64 52), align 4, !tbaa !82
  %11 = icmp eq i32 %10, -1
  %12 = load i32, ptr getelementptr inbounds nuw (i8, ptr @server, i64 6288), align 8, !tbaa !77
  br i1 %11, label %13, label %19

13:                                               ; preds = %7
  %14 = icmp sgt i32 %12, 3
  br i1 %14, label %sentinelFlushConfig.exit, label %15

15:                                               ; preds = %13
  %16 = tail call ptr @__errno_location() #32
  %17 = load i32, ptr %16, align 4, !tbaa !78
  %18 = tail call ptr @strerror(i32 noundef %17) #30
  tail call void (i32, ptr, ...) @_serverLog(i32 noundef 3, ptr noundef nonnull @.str.144, ptr noundef %18) #30
  br label %sentinelFlushConfig.exit

19:                                               ; preds = %7
  %20 = icmp sgt i32 %12, 2
  br i1 %20, label %sentinelFlushConfig.exit, label %21

21:                                               ; preds = %19
  tail call void (i32, ptr, ...) @_serverLog(i32 noundef 2, ptr noundef nonnull @.str.145) #30
  br label %sentinelFlushConfig.exit

sentinelFlushConfig.exit:                         ; preds = %13, %15, %19, %21
  %22 = load i64, ptr getelementptr inbounds nuw (i8, ptr @sentinel, i64 48), align 8, !tbaa !63
  tail call void (i32, ptr, ptr, ptr, ...) @sentinelEvent(i32 noundef 3, ptr noundef nonnull @.str.196, ptr noundef %0, ptr noundef nonnull @.str.197, i64 noundef %22)
  %.pre = load i64, ptr getelementptr inbounds nuw (i8, ptr @sentinel, i64 48), align 8
  br label %23

23:                                               ; preds = %sentinelFlushConfig.exit, %4
  %24 = phi i64 [ %.pre, %sentinelFlushConfig.exit ], [ %5, %4 ]
  %25 = getelementptr inbounds nuw i8, ptr %0, i64 256
  %26 = load i64, ptr %25, align 8, !tbaa !197
  %27 = icmp uge i64 %26, %1
  %.not = icmp ugt i64 %24, %1
  %or.cond = select i1 %27, i1 true, i1 %.not
  br i1 %or.cond, label %58, label %28

28:                                               ; preds = %23
  %29 = getelementptr inbounds nuw i8, ptr %0, i64 248
  %30 = load ptr, ptr %29, align 8, !tbaa !25
  tail call void @sdsfree(ptr noundef %30) #30
  %31 = tail call ptr @sdsnew(ptr noundef %2) #30
  store ptr %31, ptr %29, align 8, !tbaa !25
  %32 = load i64, ptr getelementptr inbounds nuw (i8, ptr @sentinel, i64 48), align 8, !tbaa !63
  store i64 %32, ptr %25, align 8, !tbaa !197
  %33 = load i32, ptr getelementptr inbounds nuw (i8, ptr @server, i64 52), align 4, !tbaa !82
  store i32 10, ptr getelementptr inbounds nuw (i8, ptr @server, i64 52), align 4, !tbaa !82
  %34 = load ptr, ptr getelementptr inbounds nuw (i8, ptr @server, i64 16), align 8, !tbaa !76
  %35 = tail call i32 @rewriteConfig(ptr noundef %34, i32 noundef 0) #30
  store i32 %33, ptr getelementptr inbounds nuw (i8, ptr @server, i64 52), align 4, !tbaa !82
  %36 = icmp eq i32 %35, -1
  %37 = load i32, ptr getelementptr inbounds nuw (i8, ptr @server, i64 6288), align 8, !tbaa !77
  br i1 %36, label %38, label %44

38:                                               ; preds = %28
  %39 = icmp sgt i32 %37, 3
  br i1 %39, label %sentinelFlushConfig.exit22, label %40

40:                                               ; preds = %38
  %41 = tail call ptr @__errno_location() #32
  %42 = load i32, ptr %41, align 4, !tbaa !78
  %43 = tail call ptr @strerror(i32 noundef %42) #30
  tail call void (i32, ptr, ...) @_serverLog(i32 noundef 3, ptr noundef nonnull @.str.144, ptr noundef %43) #30
  br label %sentinelFlushConfig.exit22

44:                                               ; preds = %28
  %45 = icmp sgt i32 %37, 2
  br i1 %45, label %sentinelFlushConfig.exit22, label %46

46:                                               ; preds = %44
  tail call void (i32, ptr, ...) @_serverLog(i32 noundef 2, ptr noundef nonnull @.str.145) #30
  br label %sentinelFlushConfig.exit22

sentinelFlushConfig.exit22:                       ; preds = %38, %40, %44, %46
  %47 = load ptr, ptr %29, align 8, !tbaa !25
  %48 = load i64, ptr %25, align 8, !tbaa !197
  tail call void (i32, ptr, ptr, ptr, ...) @sentinelEvent(i32 noundef 3, ptr noundef nonnull @.str.413, ptr noundef nonnull %0, ptr noundef nonnull @.str.414, ptr noundef %47, i64 noundef %48)
  %49 = load ptr, ptr %29, align 8, !tbaa !25
  %50 = tail call i32 @strcasecmp(ptr noundef %49, ptr noundef nonnull @sentinel) #34
  %.not19 = icmp eq i32 %50, 0
  br i1 %.not19, label %58, label %51

51:                                               ; preds = %sentinelFlushConfig.exit22
  %52 = tail call i64 @mstime() #30
  %53 = tail call i32 @rand() #30
  %54 = srem i32 %53, 1000
  %55 = sext i32 %54 to i64
  %56 = add nsw i64 %52, %55
  %57 = getelementptr inbounds nuw i8, ptr %0, i64 288
  store i64 %56, ptr %57, align 8, !tbaa !277
  br label %58

58:                                               ; preds = %sentinelFlushConfig.exit22, %51, %23
  %59 = load i64, ptr %25, align 8, !tbaa !197
  store i64 %59, ptr %3, align 8, !tbaa !171
  %60 = getelementptr inbounds nuw i8, ptr %0, i64 248
  %61 = load ptr, ptr %60, align 8, !tbaa !25
  %.not20 = icmp eq ptr %61, null
  br i1 %.not20, label %64, label %62

62:                                               ; preds = %58
  %63 = tail call ptr @sdsnew(ptr noundef nonnull %61) #30
  br label %64

64:                                               ; preds = %58, %62
  %65 = phi ptr [ %63, %62 ], [ null, %58 ]
  ret ptr %65
}